; Function Attrs: nounwind uwtable
define noalias nonnull ptr @l_Lean_registerInitAttrUnsafe___lambda__2___boxed(ptr noundef %0, ptr noundef %1, ptr noundef %2, ptr noundef %3, ptr noundef %4) #0 {
  tail call void @lean_inc_heartbeat() #5
  %6 = tail call noalias ptr @mi_malloc_small(i64 noundef 24) #5
  %7 = icmp eq ptr %6, null
  br i1 %7, label %8, label %l_Lean_registerInitAttrUnsafe___lambda__2.exit

8:                                                ; preds = %5
  tail call void @lean_internal_panic_out_of_memory() #6
  unreachable

l_Lean_registerInitAttrUnsafe___lambda__2.exit:   ; preds = %5
  %9 = getelementptr inbounds nuw i8, ptr %6, i64 4
  store i32 1, ptr %6, align 4, !tbaa !10
  store i32 131096, ptr %9, align 4
  %10 = getelementptr inbounds nuw i8, ptr %6, i64 8
  store ptr inttoptr (i64 1 to ptr), ptr %10, align 8, !tbaa !4
  %11 = getelementptr inbounds nuw i8, ptr %6, i64 16
  store ptr %4, ptr %11, align 8, !tbaa !4
  %12 = ptrtoint ptr %3 to i64
  %13 = and i64 %12, 1
  %.not = icmp eq i64 %13, 0
  br i1 %.not, label %14, label %lean_dec.exit12

14:                                               ; preds = %l_Lean_registerInitAttrUnsafe___lambda__2.exit
  %15 = load i32, ptr %3, align 4, !tbaa !10
  %16 = icmp sgt i32 %15, 1
  br i1 %16, label %17, label %19, !prof !13

17:                                               ; preds = %14
  %18 = add nsw i32 %15, -1
  store i32 %18, ptr %3, align 4, !tbaa !10
  br label %lean_dec.exit12

19:                                               ; preds = %14
  %.not.i = icmp eq i32 %15, 0
  br i1 %.not.i, label %lean_dec.exit12, label %20

20:                                               ; preds = %19
  tail call void @lean_dec_ref_cold(ptr noundef nonnull %3) #5
  br label %lean_dec.exit12

lean_dec.exit12:                                  ; preds = %20, %19, %17, %l_Lean_registerInitAttrUnsafe___lambda__2.exit
  %21 = ptrtoint ptr %2 to i64
  %22 = and i64 %21, 1
  %.not19 = icmp eq i64 %22, 0
  br i1 %.not19, label %23, label %lean_dec.exit11

23:                                               ; preds = %lean_dec.exit12
  %24 = load i32, ptr %2, align 4, !tbaa !10
  %25 = icmp sgt i32 %24, 1
  br i1 %25, label %26, label %28, !prof !13

26:                                               ; preds = %23
  %27 = add nsw i32 %24, -1
  store i32 %27, ptr %2, align 4, !tbaa !10
  br label %lean_dec.exit11

28:                                               ; preds = %23
  %.not.i13 = icmp eq i32 %24, 0
  br i1 %.not.i13, label %lean_dec.exit11, label %29

29:                                               ; preds = %28
  tail call void @lean_dec_ref_cold(ptr noundef nonnull %2) #5
  br label %lean_dec.exit11

lean_dec.exit11:                                  ; preds = %29, %28, %26, %lean_dec.exit12
  %30 = ptrtoint ptr %1 to i64
  %31 = and i64 %30, 1
  %.not20 = icmp eq i64 %31, 0
  br i1 %.not20, label %32, label %lean_dec.exit10

32:                                               ; preds = %lean_dec.exit11
  %33 = load i32, ptr %1, align 4, !tbaa !10
  %34 = icmp sgt i32 %33, 1
  br i1 %34, label %35, label %37, !prof !13

35:                                               ; preds = %32
  %36 = add nsw i32 %33, -1
  store i32 %36, ptr %1, align 4, !tbaa !10
  br label %lean_dec.exit10

37:                                               ; preds = %32
  %.not.i15 = icmp eq i32 %33, 0
  br i1 %.not.i15, label %lean_dec.exit10, label %38

38:                                               ; preds = %37
  tail call void @lean_dec_ref_cold(ptr noundef nonnull %1) #5
  br label %lean_dec.exit10

lean_dec.exit10:                                  ; preds = %38, %37, %35, %lean_dec.exit11
  %39 = ptrtoint ptr %0 to i64
  %40 = and i64 %39, 1
  %.not21 = icmp eq i64 %40, 0
  br i1 %.not21, label %41, label %lean_dec.exit

41:                                               ; preds = %lean_dec.exit10
  %42 = load i32, ptr %0, align 4, !tbaa !10
  %43 = icmp sgt i32 %42, 1
  br i1 %43, label %44, label %46, !prof !13

44:                                               ; preds = %41
  %45 = add nsw i32 %42, -1
  store i32 %45, ptr %0, align 4, !tbaa !10
  br label %lean_dec.exit

46:                                               ; preds = %41
  %.not.i17 = icmp eq i32 %42, 0
  br i1 %.not.i17, label %lean_dec.exit, label %47

47:                                               ; preds = %46
  tail call void @lean_dec_ref_cold(ptr noundef nonnull %0) #5
  br label %lean_dec.exit

lean_dec.exit:                                    ; preds = %47, %46, %44, %lean_dec.exit10
  ret ptr %6
}